target datalayout = "e-m:e-p270:32:32-p271:32:32-p272:64:64-i64:64-i128:128-f80:128-n8:16:32:64-S128"
target triple = "x86_64-pc-linux-gnu"

%class.symbol = type { ptr }
%"class.datalog::tr_infrastructure<datalog::table_traits>::plugin_object" = type { ptr, i32, %class.symbol, ptr }
%"class.datalog::lazy_table_ref" = type { ptr, ptr, %"class.datalog::table_signature", i32, %"class.datalog::scoped_rel" }
%"class.datalog::table_signature" = type <{ %"class.datalog::tr_infrastructure<datalog::table_traits>::signature_base", i32, [4 x i8] }>
%"class.datalog::tr_infrastructure<datalog::table_traits>::signature_base" = type { %class.svector }
%class.svector = type { %class.vector }
%class.vector = type { ptr }
%"class.datalog::scoped_rel" = type { ptr }
%class.ref = type { ptr }
%class.svector.0 = type { %class.vector.1 }
%class.vector.1 = type { ptr }
%"class.datalog::verbose_action" = type { i32, ptr }
%"class.datalog::lazy_table_join" = type { %"class.datalog::lazy_table_ref", %class.svector.0, %class.svector.0, %class.ref, %class.ref }

@.str.3 = private unnamed_addr constant [5 x i8] c"join\00", align 1

; Function Attrs: mustprogress nounwind uwtable
define linkonce_odr hidden noundef nonnull align 8 dereferenceable(200) ptr @_ZNK7datalog17tr_infrastructureINS_12table_traitsEE13plugin_object11get_managerEv(ptr noundef nonnull align 8 dereferenceable(32) %0) #7 comdat align 2 {
  %2 = alloca ptr, align 8
  store ptr %0, ptr %2, align 8, !tbaa !19
  %3 = load ptr, ptr %2, align 8
  %4 = getelementptr inbounds nuw %"class.datalog::tr_infrastructure<datalog::table_traits>::plugin_object", ptr %3, i32 0, i32 3
  %5 = load ptr, ptr %4, align 8, !tbaa !60
  ret ptr %5
}

; Function Attrs: mustprogress nounwind uwtable
define linkonce_odr hidden noundef zeroext i1 @_ZNK7datalog10scoped_relINS_10table_baseEEcvbEv(ptr noundef nonnull align 8 dereferenceable(8) %0) #7 comdat align 2 {
  %2 = alloca ptr, align 8
  store ptr %0, ptr %2, align 8, !tbaa !106
  %3 = load ptr, ptr %2, align 8
  %4 = getelementptr inbounds nuw %"class.datalog::scoped_rel", ptr %3, i32 0, i32 0
  %5 = load ptr, ptr %4, align 8, !tbaa !108
  %6 = icmp ne ptr %5, null
  ret i1 %6
}

; Function Attrs: mustprogress nounwind uwtable
define linkonce_odr hidden noundef ptr @_ZNK7datalog10scoped_relINS_10table_baseEE3getEv(ptr noundef nonnull align 8 dereferenceable(8) %0) #7 comdat align 2 {
  %2 = alloca ptr, align 8
  store ptr %0, ptr %2, align 8, !tbaa !106
  %3 = load ptr, ptr %2, align 8
  %4 = getelementptr inbounds nuw %"class.datalog::scoped_rel", ptr %3, i32 0, i32 0
  %5 = load ptr, ptr %4, align 8, !tbaa !108
  ret ptr %5
}

; Function Attrs: mustprogress uwtable
define linkonce_odr hidden void @_Z7deallocIN7datalog17tr_infrastructureINS0_12table_traitsEE7join_fnEEvPT_(ptr noundef %0) #4 comdat {
  %2 = alloca ptr, align 8
  store ptr %0, ptr %2, align 8, !tbaa !93
  %3 = load ptr, ptr %2, align 8, !tbaa !93
  %4 = icmp eq ptr %3, null
  br i1 %4, label %5, label %6

5:                                                ; preds = %1
  br label %12

6:                                                ; preds = %1
  %7 = load ptr, ptr %2, align 8, !tbaa !93
  %8 = load ptr, ptr %7, align 8, !tbaa !13
  %9 = getelementptr inbounds ptr, ptr %8, i64 0
  %10 = load ptr, ptr %9, align 8
  call void %10(ptr noundef nonnull align 8 dereferenceable(8) %7) #3
  %11 = load ptr, ptr %2, align 8, !tbaa !93
  call void @_ZN6memory10deallocateEPv(ptr noundef %11)
  br label %12

12:                                               ; preds = %6, %5
  ret void
}

; Function Attrs: mustprogress uwtable
define linkonce_odr hidden noundef nonnull align 8 dereferenceable(8) ptr @_ZN7datalog10scoped_relINS_10table_baseEEaSEPS1_(ptr noundef nonnull align 8 dereferenceable(8) %0, ptr noundef %1) #4 comdat align 2 {
  %3 = alloca ptr, align 8
  %4 = alloca ptr, align 8
  store ptr %0, ptr %3, align 8, !tbaa !106
  store ptr %1, ptr %4, align 8, !tbaa !37
  %5 = load ptr, ptr %3, align 8
  %6 = getelementptr inbounds nuw %"class.datalog::scoped_rel", ptr %5, i32 0, i32 0
  %7 = load ptr, ptr %6, align 8, !tbaa !108
  %8 = icmp ne ptr %7, null
  br i1 %8, label %9, label %17

9:                                                ; preds = %2
  %10 = load ptr, ptr %4, align 8, !tbaa !37
  %11 = getelementptr inbounds nuw %"class.datalog::scoped_rel", ptr %5, i32 0, i32 0
  %12 = load ptr, ptr %11, align 8, !tbaa !108
  %13 = icmp ne ptr %10, %12
  br i1 %13, label %14, label %17

14:                                               ; preds = %9
  %15 = getelementptr inbounds nuw %"class.datalog::scoped_rel", ptr %5, i32 0, i32 0
  %16 = load ptr, ptr %15, align 8, !tbaa !108
  call void @_ZN7datalog16universal_deleteEPNS_10table_baseE(ptr noundef %16)
  br label %17

17:                                               ; preds = %14, %9, %2
  %18 = load ptr, ptr %4, align 8, !tbaa !37
  %19 = getelementptr inbounds nuw %"class.datalog::scoped_rel", ptr %5, i32 0, i32 0
  store ptr %18, ptr %19, align 8, !tbaa !108
  ret ptr %5
}

; Function Attrs: mustprogress nounwind uwtable
define linkonce_odr hidden noundef ptr @_ZNK6vectorIjLb0EjE4dataEv(ptr noundef nonnull align 8 dereferenceable(8) %0) #7 comdat align 2 {
  %2 = alloca ptr, align 8
  store ptr %0, ptr %2, align 8, !tbaa !102
  %3 = load ptr, ptr %2, align 8
  %4 = getelementptr inbounds nuw %class.vector.1, ptr %3, i32 0, i32 0
  %5 = load ptr, ptr %4, align 8, !tbaa !104
  ret ptr %5
}

; Function Attrs: mustprogress nounwind uwtable
define linkonce_odr hidden noundef i32 @_ZNK6vectorIjLb0EjE4sizeEv(ptr noundef nonnull align 8 dereferenceable(8) %0) #7 comdat align 2 {
  %2 = alloca i32, align 4
  %3 = alloca ptr, align 8
  store ptr %0, ptr %3, align 8, !tbaa !102
  %4 = load ptr, ptr %3, align 8
  %5 = getelementptr inbounds nuw %class.vector.1, ptr %4, i32 0, i32 0
  %6 = load ptr, ptr %5, align 8, !tbaa !104
  %7 = icmp eq ptr %6, null
  br i1 %7, label %8, label %9

8:                                                ; preds = %1
  store i32 0, ptr %2, align 4
  br label %14

9:                                                ; preds = %1
  %10 = getelementptr inbounds nuw %class.vector.1, ptr %4, i32 0, i32 0
  %11 = load ptr, ptr %10, align 8, !tbaa !104
  %12 = getelementptr inbounds i32, ptr %11, i64 -1
  %13 = load i32, ptr %12, align 4, !tbaa !43
  store i32 %13, ptr %2, align 4
  br label %14

14:                                               ; preds = %9, %8
  %15 = load i32, ptr %2, align 4
  ret i32 %15
}

; Function Attrs: mustprogress nounwind uwtable
define linkonce_odr hidden noundef nonnull align 8 dereferenceable(200) ptr @_ZN7datalog14lazy_table_ref2rmEv(ptr noundef nonnull align 8 dereferenceable(48) %0) #7 comdat align 2 {
  %2 = alloca ptr, align 8
  store ptr %0, ptr %2, align 8, !tbaa !41
  %3 = load ptr, ptr %2, align 8
  %4 = getelementptr inbounds nuw %"class.datalog::lazy_table_ref", ptr %3, i32 0, i32 1
  %5 = load ptr, ptr %4, align 8, !tbaa !95
  %6 = call noundef nonnull align 8 dereferenceable(200) ptr @_ZNK7datalog17tr_infrastructureINS_12table_traitsEE13plugin_object11get_managerEv(ptr noundef nonnull align 8 dereferenceable(32) %5)
  ret ptr %6
}

; Function Attrs: mustprogress uwtable
define linkonce_odr hidden noundef ptr @_ZN7datalog14lazy_table_ref4evalEv(ptr noundef nonnull align 8 dereferenceable(48) %0) #4 comdat align 2 {
  %2 = alloca ptr, align 8
  store ptr %0, ptr %2, align 8, !tbaa !41
  %3 = load ptr, ptr %2, align 8
  %4 = getelementptr inbounds nuw %"class.datalog::lazy_table_ref", ptr %3, i32 0, i32 4
  %5 = call noundef zeroext i1 @_ZNK7datalog10scoped_relINS_10table_baseEEcvbEv(ptr noundef nonnull align 8 dereferenceable(8) %4)
  br i1 %5, label %13, label %6

6:                                                ; preds = %1
  %7 = load ptr, ptr %3, align 8, !tbaa !13
  %8 = getelementptr inbounds ptr, ptr %7, i64 0
  %9 = load ptr, ptr %8, align 8
  %10 = call noundef ptr %9(ptr noundef nonnull align 8 dereferenceable(48) %3)
  %11 = getelementptr inbounds nuw %"class.datalog::lazy_table_ref", ptr %3, i32 0, i32 4
  %12 = call noundef nonnull align 8 dereferenceable(8) ptr @_ZN7datalog10scoped_relINS_10table_baseEEaSEPS1_(ptr noundef nonnull align 8 dereferenceable(8) %11, ptr noundef %10)
  br label %13

13:                                               ; preds = %6, %1
  %14 = getelementptr inbounds nuw %"class.datalog::lazy_table_ref", ptr %3, i32 0, i32 4
  %15 = call noundef ptr @_ZNK7datalog10scoped_relINS_10table_baseEE3getEv(ptr noundef nonnull align 8 dereferenceable(8) %14)
  ret ptr %15
}

; Function Attrs: mustprogress nounwind uwtable
define linkonce_odr hidden noundef ptr @_ZNK3refIN7datalog14lazy_table_refEEptEv(ptr noundef nonnull align 8 dereferenceable(8) %0) #7 comdat align 2 {
  %2 = alloca ptr, align 8
  store ptr %0, ptr %2, align 8, !tbaa !85
  %3 = load ptr, ptr %2, align 8
  %4 = getelementptr inbounds nuw %class.ref, ptr %3, i32 0, i32 0
  %5 = load ptr, ptr %4, align 8, !tbaa !87
  ret ptr %5
}

; Function Attrs: mustprogress uwtable
define hidden noundef ptr @_ZN7datalog15lazy_table_join5forceEv(ptr noundef nonnull align 8 dereferenceable(80) %0) unnamed_addr #4 align 2 personality ptr @__gxx_personality_v0 {
  %2 = alloca ptr, align 8
  %3 = alloca ptr, align 8
  %4 = alloca ptr, align 8
  %5 = alloca %"class.datalog::verbose_action", align 8
  %6 = alloca ptr, align 8
  %7 = alloca ptr, align 8
  %8 = alloca i32, align 4
  store ptr %0, ptr %2, align 8, !tbaa !91
  %9 = load ptr, ptr %2, align 8
  call void @llvm.lifetime.start.p0(i64 8, ptr %3) #3
  %10 = getelementptr inbounds nuw %"class.datalog::lazy_table_join", ptr %9, i32 0, i32 3
  %11 = call noundef ptr @_ZNK3refIN7datalog14lazy_table_refEEptEv(ptr noundef nonnull align 8 dereferenceable(8) %10)
  %12 = call noundef ptr @_ZN7datalog14lazy_table_ref4evalEv(ptr noundef nonnull align 8 dereferenceable(48) %11)
  store ptr %12, ptr %3, align 8, !tbaa !37
  call void @llvm.lifetime.start.p0(i64 8, ptr %4) #3
  %13 = getelementptr inbounds nuw %"class.datalog::lazy_table_join", ptr %9, i32 0, i32 4
  %14 = call noundef ptr @_ZNK3refIN7datalog14lazy_table_refEEptEv(ptr noundef nonnull align 8 dereferenceable(8) %13)
  %15 = call noundef ptr @_ZN7datalog14lazy_table_ref4evalEv(ptr noundef nonnull align 8 dereferenceable(48) %14)
  store ptr %15, ptr %4, align 8, !tbaa !37
  call void @llvm.lifetime.start.p0(i64 16, ptr %5) #3
  call void @_ZN7datalog14verbose_actionC1EPKcj(ptr noundef nonnull align 8 dereferenceable(16) %5, ptr noundef @.str.3, i32 noundef 11)
  call void @llvm.lifetime.start.p0(i64 8, ptr %6) #3
  %16 = invoke noundef nonnull align 8 dereferenceable(200) ptr @_ZN7datalog14lazy_table_ref2rmEv(ptr noundef nonnull align 8 dereferenceable(48) %9)
          to label %17 unwind label %47

17:                                               ; preds = %1
  %18 = load ptr, ptr %3, align 8, !tbaa !37
  %19 = load ptr, ptr %4, align 8, !tbaa !37
  %20 = getelementptr inbounds nuw %"class.datalog::lazy_table_join", ptr %9, i32 0, i32 1
  %21 = invoke noundef i32 @_ZNK6vectorIjLb0EjE4sizeEv(ptr noundef nonnull align 8 dereferenceable(8) %20)
          to label %22 unwind label %47

22:                                               ; preds = %17
  %23 = getelementptr inbounds nuw %"class.datalog::lazy_table_join", ptr %9, i32 0, i32 1
  %24 = invoke noundef ptr @_ZNK6vectorIjLb0EjE4dataEv(ptr noundef nonnull align 8 dereferenceable(8) %23)
          to label %25 unwind label %47

25:                                               ; preds = %22
  %26 = getelementptr inbounds nuw %"class.datalog::lazy_table_join", ptr %9, i32 0, i32 2
  %27 = invoke noundef ptr @_ZNK6vectorIjLb0EjE4dataEv(ptr noundef nonnull align 8 dereferenceable(8) %26)
          to label %28 unwind label %47

28:                                               ; preds = %25
  %29 = invoke noundef ptr @_ZN7datalog16relation_manager10mk_join_fnERKNS_10table_baseES3_jPKjS5_(ptr noundef nonnull align 8 dereferenceable(200) %16, ptr noundef nonnull align 8 dereferenceable(36) %18, ptr noundef nonnull align 8 dereferenceable(36) %19, i32 noundef %21, ptr noundef %24, ptr noundef %27)
          to label %30 unwind label %47

30:                                               ; preds = %28
  store ptr %29, ptr %6, align 8, !tbaa !93
  %31 = load ptr, ptr %6, align 8, !tbaa !93
  %32 = load ptr, ptr %3, align 8, !tbaa !37
  %33 = load ptr, ptr %4, align 8, !tbaa !37
  %34 = load ptr, ptr %31, align 8, !tbaa !13
  %35 = getelementptr inbounds ptr, ptr %34, i64 2
  %36 = load ptr, ptr %35, align 8
  %37 = invoke noundef ptr %36(ptr noundef nonnull align 8 dereferenceable(8) %31, ptr noundef nonnull align 8 dereferenceable(36) %32, ptr noundef nonnull align 8 dereferenceable(36) %33)
          to label %38 unwind label %47

38:                                               ; preds = %30
  %39 = getelementptr inbounds nuw %"class.datalog::lazy_table_ref", ptr %9, i32 0, i32 4
  %40 = invoke noundef nonnull align 8 dereferenceable(8) ptr @_ZN7datalog10scoped_relINS_10table_baseEEaSEPS1_(ptr noundef nonnull align 8 dereferenceable(8) %39, ptr noundef %37)
          to label %41 unwind label %47

41:                                               ; preds = %38
  %42 = load ptr, ptr %6, align 8, !tbaa !93
  invoke void @_Z7deallocIN7datalog17tr_infrastructureINS0_12table_traitsEE7join_fnEEvPT_(ptr noundef %42)
          to label %43 unwind label %47

43:                                               ; preds = %41
  %44 = getelementptr inbounds nuw %"class.datalog::lazy_table_ref", ptr %9, i32 0, i32 4
  %45 = invoke noundef ptr @_ZNK7datalog10scoped_relINS_10table_baseEE3getEv(ptr noundef nonnull align 8 dereferenceable(8) %44)
          to label %46 unwind label %47

46:                                               ; preds = %43
  call void @llvm.lifetime.end.p0(i64 8, ptr %6) #3
  call void @_ZN7datalog14verbose_actionD1Ev(ptr noundef nonnull align 8 dereferenceable(16) %5) #3
  call void @llvm.lifetime.end.p0(i64 16, ptr %5) #3
  call void @llvm.lifetime.end.p0(i64 8, ptr %4) #3
  call void @llvm.lifetime.end.p0(i64 8, ptr %3) #3
  ret ptr %45

47:                                               ; preds = %43, %41, %38, %30, %28, %25, %22, %17, %1
  %48 = landingpad { ptr, i32 }
          cleanup
  %49 = extractvalue { ptr, i32 } %48, 0
  store ptr %49, ptr %7, align 8
  %50 = extractvalue { ptr, i32 } %48, 1
  store i32 %50, ptr %8, align 4
  call void @llvm.lifetime.end.p0(i64 8, ptr %6) #3
  call void @_ZN7datalog14verbose_actionD1Ev(ptr noundef nonnull align 8 dereferenceable(16) %5) #3
  call void @llvm.lifetime.end.p0(i64 16, ptr %5) #3
  call void @llvm.lifetime.end.p0(i64 8, ptr %4) #3
  call void @llvm.lifetime.end.p0(i64 8, ptr %3) #3
  br label %51

51:                                               ; preds = %47
  %52 = load ptr, ptr %7, align 8
  %53 = load i32, ptr %8, align 4
  %54 = insertvalue { ptr, i32 } poison, ptr %52, 0
  %55 = insertvalue { ptr, i32 } %54, i32 %53, 1
  resume { ptr, i32 } %55
}