; Function Attrs: mustprogress uwtable
define hidden noundef ptr @_ZN7datalog15lazy_table_join5forceEv(ptr noundef nonnull align 8 captures(none) dereferenceable(80) %0) unnamed_addr #3 align 2 personality ptr @__gxx_personality_v0 {
  %2 = alloca %"class.datalog::verbose_action", align 8
  %3 = getelementptr inbounds nuw i8, ptr %0, i64 64
  %4 = load ptr, ptr %3, align 8, !tbaa !56
  %5 = getelementptr inbounds nuw i8, ptr %4, i64 40
  %6 = load ptr, ptr %5, align 8, !tbaa !51
  %.not.i = icmp eq ptr %6, null
  br i1 %.not.i, label %7, label %_ZN7datalog14lazy_table_ref4evalEv.exit

7:                                                ; preds = %1
  %8 = load ptr, ptr %4, align 8, !tbaa !27
  %9 = load ptr, ptr %8, align 8
  %10 = tail call noundef ptr %9(ptr noundef nonnull align 8 dereferenceable(48) %4)
  %11 = load ptr, ptr %5, align 8, !tbaa !51
  %.not.i.i = icmp eq ptr %11, null
  %.not3.i.i = icmp eq ptr %10, %11
  %or.cond.i.i = or i1 %.not.i.i, %.not3.i.i
  br i1 %or.cond.i.i, label %_ZN7datalog10scoped_relINS_10table_baseEEaSEPS1_.exit.i, label %12

12:                                               ; preds = %7
  tail call void @_ZN7datalog16universal_deleteEPNS_10table_baseE(ptr noundef nonnull %11)
  br label %_ZN7datalog10scoped_relINS_10table_baseEEaSEPS1_.exit.i

_ZN7datalog10scoped_relINS_10table_baseEEaSEPS1_.exit.i: ; preds = %12, %7
  store ptr %10, ptr %5, align 8, !tbaa !51
  br label %_ZN7datalog14lazy_table_ref4evalEv.exit

_ZN7datalog14lazy_table_ref4evalEv.exit:          ; preds = %1, %_ZN7datalog10scoped_relINS_10table_baseEEaSEPS1_.exit.i
  %13 = phi ptr [ %10, %_ZN7datalog10scoped_relINS_10table_baseEEaSEPS1_.exit.i ], [ %6, %1 ]
  %14 = getelementptr inbounds nuw i8, ptr %0, i64 72
  %15 = load ptr, ptr %14, align 8, !tbaa !56
  %16 = getelementptr inbounds nuw i8, ptr %15, i64 40
  %17 = load ptr, ptr %16, align 8, !tbaa !51
  %.not.i8 = icmp eq ptr %17, null
  br i1 %.not.i8, label %18, label %_ZN7datalog14lazy_table_ref4evalEv.exit13

18:                                               ; preds = %_ZN7datalog14lazy_table_ref4evalEv.exit
  %19 = load ptr, ptr %15, align 8, !tbaa !27
  %20 = load ptr, ptr %19, align 8
  %21 = tail call noundef ptr %20(ptr noundef nonnull align 8 dereferenceable(48) %15)
  %22 = load ptr, ptr %16, align 8, !tbaa !51
  %.not.i.i9 = icmp eq ptr %22, null
  %.not3.i.i10 = icmp eq ptr %21, %22
  %or.cond.i.i11 = or i1 %.not.i.i9, %.not3.i.i10
  br i1 %or.cond.i.i11, label %_ZN7datalog10scoped_relINS_10table_baseEEaSEPS1_.exit.i12, label %23

23:                                               ; preds = %18
  tail call void @_ZN7datalog16universal_deleteEPNS_10table_baseE(ptr noundef nonnull %22)
  br label %_ZN7datalog10scoped_relINS_10table_baseEEaSEPS1_.exit.i12

_ZN7datalog10scoped_relINS_10table_baseEEaSEPS1_.exit.i12: ; preds = %23, %18
  store ptr %21, ptr %16, align 8, !tbaa !51
  br label %_ZN7datalog14lazy_table_ref4evalEv.exit13

_ZN7datalog14lazy_table_ref4evalEv.exit13:        ; preds = %_ZN7datalog14lazy_table_ref4evalEv.exit, %_ZN7datalog10scoped_relINS_10table_baseEEaSEPS1_.exit.i12
  %24 = phi ptr [ %21, %_ZN7datalog10scoped_relINS_10table_baseEEaSEPS1_.exit.i12 ], [ %17, %_ZN7datalog14lazy_table_ref4evalEv.exit ]
  call void @llvm.lifetime.start.p0(i64 16, ptr nonnull %2) #22
  call void @_ZN7datalog14verbose_actionC1EPKcj(ptr noundef nonnull align 8 dereferenceable(16) %2, ptr noundef nonnull @.str.3, i32 noundef 11)
  %25 = getelementptr inbounds nuw i8, ptr %0, i64 8
  %26 = load ptr, ptr %25, align 8, !tbaa !81
  %27 = getelementptr inbounds nuw i8, ptr %26, i64 24
  %28 = load ptr, ptr %27, align 8, !tbaa !65
  %29 = getelementptr inbounds nuw i8, ptr %0, i64 48
  %30 = load ptr, ptr %29, align 8, !tbaa !60
  %31 = icmp eq ptr %30, null
  br i1 %31, label %_ZNK6vectorIjLb0EjE4sizeEv.exit, label %32

32:                                               ; preds = %_ZN7datalog14lazy_table_ref4evalEv.exit13
  %33 = getelementptr inbounds i8, ptr %30, i64 -4
  %34 = load i32, ptr %33, align 4, !tbaa !42
  br label %_ZNK6vectorIjLb0EjE4sizeEv.exit

_ZNK6vectorIjLb0EjE4sizeEv.exit:                  ; preds = %_ZN7datalog14lazy_table_ref4evalEv.exit13, %32
  %.0.i = phi i32 [ %34, %32 ], [ 0, %_ZN7datalog14lazy_table_ref4evalEv.exit13 ]
  %35 = getelementptr inbounds nuw i8, ptr %0, i64 56
  %36 = load ptr, ptr %35, align 8, !tbaa !60
  %37 = invoke noundef ptr @_ZN7datalog16relation_manager10mk_join_fnERKNS_10table_baseES3_jPKjS5_(ptr noundef nonnull align 8 dereferenceable(200) %28, ptr noundef nonnull align 8 dereferenceable(36) %13, ptr noundef nonnull align 8 dereferenceable(36) %24, i32 noundef %.0.i, ptr noundef %30, ptr noundef %36)
          to label %38 unwind label %51

38:                                               ; preds = %_ZNK6vectorIjLb0EjE4sizeEv.exit
  %39 = load ptr, ptr %37, align 8, !tbaa !27
  %40 = getelementptr inbounds nuw i8, ptr %39, i64 16
  %41 = load ptr, ptr %40, align 8
  %42 = invoke noundef ptr %41(ptr noundef nonnull align 8 dereferenceable(8) %37, ptr noundef nonnull align 8 dereferenceable(36) %13, ptr noundef nonnull align 8 dereferenceable(36) %24)
          to label %43 unwind label %51

43:                                               ; preds = %38
  %44 = getelementptr inbounds nuw i8, ptr %0, i64 40
  %45 = load ptr, ptr %44, align 8, !tbaa !51
  %.not.i14 = icmp eq ptr %45, null
  %.not3.i = icmp eq ptr %42, %45
  %or.cond.i = or i1 %.not.i14, %.not3.i
  br i1 %or.cond.i, label %47, label %46

46:                                               ; preds = %43
  invoke void @_ZN7datalog16universal_deleteEPNS_10table_baseE(ptr noundef nonnull %45)
          to label %47 unwind label %51

47:                                               ; preds = %46, %43
  store ptr %42, ptr %44, align 8, !tbaa !51
  %48 = load ptr, ptr %37, align 8, !tbaa !27
  %49 = load ptr, ptr %48, align 8
  call void %49(ptr noundef nonnull align 8 dereferenceable(8) %37) #22
  invoke void @_ZN6memory10deallocateEPv(ptr noundef nonnull %37)
          to label %_Z7deallocIN7datalog17tr_infrastructureINS0_12table_traitsEE7join_fnEEvPT_.exit unwind label %51

_Z7deallocIN7datalog17tr_infrastructureINS0_12table_traitsEE7join_fnEEvPT_.exit: ; preds = %47
  %50 = load ptr, ptr %44, align 8, !tbaa !51
  call void @_ZN7datalog14verbose_actionD1Ev(ptr noundef nonnull align 8 dereferenceable(16) %2) #22
  call void @llvm.lifetime.end.p0(i64 16, ptr nonnull %2) #22
  ret ptr %50

51:                                               ; preds = %47, %46, %38, %_ZNK6vectorIjLb0EjE4sizeEv.exit
  %52 = landingpad { ptr, i32 }
          cleanup
  call void @_ZN7datalog14verbose_actionD1Ev(ptr noundef nonnull align 8 dereferenceable(16) %2) #22
  call void @llvm.lifetime.end.p0(i64 16, ptr nonnull %2) #22
  resume { ptr, i32 } %52
}